; Function Attrs: mustprogress uwtable
define dso_local noundef zeroext i1 @_ZN4Luau12Anyification7isDirtyEPKNS_4TypeE(ptr noundef nonnull readonly align 8 captures(none) dereferenceable(513) %0, ptr noundef %1) unnamed_addr #2 align 2 {
  %3 = getelementptr inbounds nuw i8, ptr %1, i64 344
  %4 = load i8, ptr %3, align 8, !tbaa !80, !range !88, !noundef !89
  %5 = trunc nuw i8 %4 to i1
  br i1 %5, label %_ZNK4Luau6TxnLog10getMutableINS_8FreeTypeEPKNS_4TypeEEEPT_T0_.exit, label %6

6:                                                ; preds = %2
  %7 = getelementptr inbounds nuw i8, ptr %0, i64 144
  %8 = load ptr, ptr %7, align 8, !tbaa !90
  %9 = tail call noundef ptr @_ZNK4Luau6TxnLog7pendingEPKNS_4TypeE(ptr noundef nonnull align 8 dereferenceable(128) %8, ptr noundef nonnull %1)
  %.not.i = icmp eq ptr %9, null
  br i1 %.not.i, label %12, label %10

10:                                               ; preds = %6
  %11 = tail call noundef ptr @_ZN4Luau9asMutableEPKNS_4TypeE(ptr noundef nonnull %9)
  %.not.i.i.i.i = icmp eq ptr %11, null
  br i1 %.not.i.i.i.i, label %19, label %_ZN4Luau10getMutableINS_9TableTypeEEEPT_PNS_11PendingTypeE.exit.sink.split.i

12:                                               ; preds = %6
  %13 = tail call noundef ptr @_ZN4Luau9asMutableEPKNS_4TypeE(ptr noundef nonnull %1)
  %.not.i.i.i = icmp eq ptr %13, null
  br i1 %.not.i.i.i, label %19, label %_ZN4Luau10getMutableINS_9TableTypeEEEPT_PNS_11PendingTypeE.exit.sink.split.i

_ZN4Luau10getMutableINS_9TableTypeEEEPT_PNS_11PendingTypeE.exit.sink.split.i: ; preds = %12, %10
  %.sink.i = phi ptr [ %11, %10 ], [ %13, %12 ]
  %14 = load i32, ptr %.sink.i, align 8, !tbaa !91
  %15 = icmp eq i32 %14, 9
  br i1 %15, label %_ZNK4Luau6TxnLog10getMutableINS_9TableTypeEPKNS_4TypeEEEPT_T0_.exit, label %19

_ZNK4Luau6TxnLog10getMutableINS_9TableTypeEPKNS_4TypeEEEPT_T0_.exit: ; preds = %_ZN4Luau10getMutableINS_9TableTypeEEEPT_PNS_11PendingTypeE.exit.sink.split.i
  %16 = getelementptr inbounds nuw i8, ptr %.sink.i, i64 80
  %17 = load i32, ptr %16, align 8, !tbaa !92
  %18 = add i32 %17, -1
  %spec.select = icmp ult i32 %18, 2
  br label %_ZNK4Luau6TxnLog10getMutableINS_8FreeTypeEPKNS_4TypeEEEPT_T0_.exit

19:                                               ; preds = %10, %12, %_ZN4Luau10getMutableINS_9TableTypeEEEPT_PNS_11PendingTypeE.exit.sink.split.i
  %20 = load ptr, ptr %7, align 8, !tbaa !90
  %21 = tail call noundef ptr @_ZNK4Luau6TxnLog7pendingEPKNS_4TypeE(ptr noundef nonnull align 8 dereferenceable(128) %20, ptr noundef nonnull %1)
  %.not.i11 = icmp eq ptr %21, null
  br i1 %.not.i11, label %24, label %22

22:                                               ; preds = %19
  %23 = tail call noundef ptr @_ZN4Luau9asMutableEPKNS_4TypeE(ptr noundef nonnull %21)
  %.not.i.i.i.i12 = icmp eq ptr %23, null
  br i1 %.not.i.i.i.i12, label %_ZNK4Luau6TxnLog10getMutableINS_8FreeTypeEPKNS_4TypeEEEPT_T0_.exit, label %_ZN4Luau10getMutableINS_8FreeTypeEEEPT_PNS_11PendingTypeE.exit.sink.split.i

24:                                               ; preds = %19
  %25 = tail call noundef ptr @_ZN4Luau9asMutableEPKNS_4TypeE(ptr noundef nonnull %1)
  %.not.i.i.i15 = icmp eq ptr %25, null
  br i1 %.not.i.i.i15, label %_ZNK4Luau6TxnLog10getMutableINS_8FreeTypeEPKNS_4TypeEEEPT_T0_.exit, label %_ZN4Luau10getMutableINS_8FreeTypeEEEPT_PNS_11PendingTypeE.exit.sink.split.i

_ZN4Luau10getMutableINS_8FreeTypeEEEPT_PNS_11PendingTypeE.exit.sink.split.i: ; preds = %24, %22
  %.sink.i13 = phi ptr [ %23, %22 ], [ %25, %24 ]
  %26 = load i32, ptr %.sink.i13, align 8, !tbaa !91
  %27 = icmp eq i32 %26, 2
  br label %_ZNK4Luau6TxnLog10getMutableINS_8FreeTypeEPKNS_4TypeEEEPT_T0_.exit

_ZNK4Luau6TxnLog10getMutableINS_8FreeTypeEPKNS_4TypeEEEPT_T0_.exit: ; preds = %_ZN4Luau10getMutableINS_8FreeTypeEEEPT_PNS_11PendingTypeE.exit.sink.split.i, %24, %22, %_ZNK4Luau6TxnLog10getMutableINS_9TableTypeEPKNS_4TypeEEEPT_T0_.exit, %2
  %.0 = phi i1 [ false, %2 ], [ %spec.select, %_ZNK4Luau6TxnLog10getMutableINS_9TableTypeEPKNS_4TypeEEEPT_T0_.exit ], [ false, %22 ], [ false, %24 ], [ %27, %_ZN4Luau10getMutableINS_8FreeTypeEEEPT_PNS_11PendingTypeE.exit.sink.split.i ]
  ret i1 %.0
}